target datalayout = "e-m:e-p270:32:32-p271:32:32-p272:64:64-i64:64-i128:128-f80:128-n8:16:32:64-S128"
target triple = "x86_64-pc-linux-gnu"

%struct.dt_develop_t = type { i32, i32, i32, ptr, double, double, i32, i32, i32, i32, i32, double, i32, i32, i32, ptr, ptr, [8 x i8], %struct.dt_image_t, i32, i32, %struct.dt_pthread_mutex_t, i32, ptr, i32, ptr, i32, ptr, ptr, i32, ptr, ptr, ptr, ptr, i32, i32, ptr, ptr, ptr, ptr, i32, i32, i32, float, float, ptr, i32, %struct.anon.5, %struct.dt_dev_chroma_t, %struct.anon.8, %struct.anon.9, %struct.anon.10, %struct.anon.11, %struct.anon.12, %struct.anon.13, ptr, ptr, %struct.dt_dev_viewport_t, %struct.dt_dev_viewport_t, i32, i32, i32, ptr, [8 x i8] }
%struct.dt_image_t = type { i32, i32, float, float, float, float, float, float, float, [64 x i8], [64 x i8], [128 x i8], [64 x i8], [64 x i8], [64 x i8], [64 x i8], i64, i32, %union.dt_image_correction_data_t, [64 x i8], [64 x i8], [64 x i8], [128 x i8], i32, [256 x i8], i32, i32, i32, i32, i32, i32, i32, i32, i32, i32, float, i32, i32, i32, i32, i32, i32, i64, i64, i64, i64, i32, [12 x i8], %struct.dt_iop_buffer_dsc_t, [9 x float], ptr, i32, i32, %struct.dt_image_raw_parameters_t, %struct.dt_image_geoloc_t, %struct._color_harmony_t, i16, [4 x i16], i32, i32, float, float, [4 x float], [4 x [3 x float]], [4 x float], ptr, ptr, i32, i32, [8 x i8] }
%union.dt_image_correction_data_t = type { %struct.anon.0 }
%struct.anon.0 = type { i32, float, [11 x float], [11 x float], [11 x float], [11 x float], [11 x float] }
%struct.dt_iop_buffer_dsc_t = type { i32, i32, i32, [6 x [6 x i8]], %struct.anon.3, [12 x i8], %struct.anon.4, [4 x float], i32, [12 x i8] }
%struct.anon.3 = type { i16, i16 }
%struct.anon.4 = type { i32, [12 x i8], [4 x float] }
%struct.dt_image_raw_parameters_t = type { i32 }
%struct.dt_image_geoloc_t = type { double, double, double }
%struct._color_harmony_t = type { i32, i32, i32 }
%struct.dt_pthread_mutex_t = type { %union.pthread_mutex_t }
%union.pthread_mutex_t = type { %struct.__pthread_mutex_s }
%struct.__pthread_mutex_s = type { i32, i32, i32, i32, i32, i16, i16, %struct.__pthread_internal_list }
%struct.__pthread_internal_list = type { ptr, ptr }
%struct.anon.5 = type { %struct.dt_dev_proxy_exposure_t, ptr, %struct.anon.6, %struct.anon.7 }
%struct.dt_dev_proxy_exposure_t = type { ptr, ptr, ptr, ptr }
%struct.anon.6 = type { ptr, ptr, ptr, ptr, ptr, ptr, ptr, ptr, ptr }
%struct.anon.7 = type { ptr, ptr, ptr, ptr, ptr }
%struct.dt_dev_chroma_t = type { ptr, ptr, [4 x double], [4 x double], [4 x double], i32 }
%struct.anon.8 = type { ptr, ptr, ptr }
%struct.anon.9 = type { ptr, ptr, i32, i32, float, float, i32 }
%struct.anon.10 = type { ptr, ptr, i32, i32, i32, float }
%struct.anon.11 = type { ptr }
%struct.anon.12 = type { ptr, i32 }
%struct.anon.13 = type { ptr, ptr, ptr }
%struct.dt_dev_viewport_t = type { ptr, i32, i32, i32, i32, i32, double, double, double, i32, i32, i32, float, float, float, ptr }

@.str = private unnamed_addr constant [24 x i8] c"develop process preview\00", align 1
@.str.1 = private unnamed_addr constant [26 x i8] c"develop process preview 2\00", align 1
@.str.2 = private unnamed_addr constant [22 x i8] c"develop process image\00", align 1

; Function Attrs: nounwind uwtable
define ptr @dt_dev_process_preview_job_create(ptr noundef %0) #0 {
  %2 = alloca ptr, align 8
  %3 = alloca ptr, align 8
  %4 = alloca ptr, align 8
  %5 = alloca i32, align 4
  store ptr %0, ptr %3, align 8, !tbaa !6
  call void @llvm.lifetime.start.p0(i64 8, ptr %4) #3
  %6 = call ptr (ptr, ptr, ...) @dt_control_job_create(ptr noundef @dt_dev_process_preview_job_run, ptr noundef @.str)
  store ptr %6, ptr %4, align 8, !tbaa !11
  %7 = load ptr, ptr %4, align 8, !tbaa !11
  %8 = icmp ne ptr %7, null
  br i1 %8, label %10, label %9

9:                                                ; preds = %1
  store ptr null, ptr %2, align 8
  store i32 1, ptr %5, align 4
  br label %14

10:                                               ; preds = %1
  %11 = load ptr, ptr %4, align 8, !tbaa !11
  %12 = load ptr, ptr %3, align 8, !tbaa !6
  call void @dt_control_job_set_params(ptr noundef %11, ptr noundef %12, ptr noundef null)
  %13 = load ptr, ptr %4, align 8, !tbaa !11
  store ptr %13, ptr %2, align 8
  store i32 1, ptr %5, align 4
  br label %14

14:                                               ; preds = %10, %9
  call void @llvm.lifetime.end.p0(i64 8, ptr %4) #3
  %15 = load ptr, ptr %2, align 8
  ret ptr %15
}

; Function Attrs: nocallback nofree nosync nounwind willreturn memory(argmem: readwrite)
declare void @llvm.lifetime.start.p0(i64 immarg, ptr captures(none)) #1

declare ptr @dt_control_job_create(ptr noundef, ptr noundef, ...) #2

; Function Attrs: nounwind uwtable
define internal i32 @dt_dev_process_preview_job_run(ptr noundef %0) #0 {
  %2 = alloca ptr, align 8
  %3 = alloca ptr, align 8
  store ptr %0, ptr %2, align 8, !tbaa !11
  call void @llvm.lifetime.start.p0(i64 8, ptr %3) #3
  %4 = load ptr, ptr %2, align 8, !tbaa !11
  %5 = call ptr @dt_control_job_get_params(ptr noundef %4)
  store ptr %5, ptr %3, align 8, !tbaa !6
  %6 = load ptr, ptr %3, align 8, !tbaa !6
  %7 = load ptr, ptr %3, align 8, !tbaa !6
  %8 = getelementptr inbounds nuw %struct.dt_develop_t, ptr %7, i32 0, i32 16
  %9 = load ptr, ptr %8, align 16, !tbaa !13
  call void @dt_dev_process_image_job(ptr noundef %6, ptr noundef null, ptr noundef %9, i32 noundef 21, i32 noundef -2)
  call void @llvm.lifetime.end.p0(i64 8, ptr %3) #3
  ret i32 0
}

declare void @dt_control_job_set_params(ptr noundef, ptr noundef, ptr noundef) #2

; Function Attrs: nocallback nofree nosync nounwind willreturn memory(argmem: readwrite)
declare void @llvm.lifetime.end.p0(i64 immarg, ptr captures(none)) #1

; Function Attrs: nounwind uwtable
define ptr @dt_dev_process_preview2_job_create(ptr noundef %0) #0 {
  %2 = alloca ptr, align 8
  %3 = alloca ptr, align 8
  %4 = alloca ptr, align 8
  %5 = alloca i32, align 4
  store ptr %0, ptr %3, align 8, !tbaa !6
  call void @llvm.lifetime.start.p0(i64 8, ptr %4) #3
  %6 = call ptr (ptr, ptr, ...) @dt_control_job_create(ptr noundef @dt_dev_process_preview2_job_run, ptr noundef @.str.1)
  store ptr %6, ptr %4, align 8, !tbaa !11
  %7 = load ptr, ptr %4, align 8, !tbaa !11
  %8 = icmp ne ptr %7, null
  br i1 %8, label %10, label %9

9:                                                ; preds = %1
  store ptr null, ptr %2, align 8
  store i32 1, ptr %5, align 4
  br label %14

10:                                               ; preds = %1
  %11 = load ptr, ptr %4, align 8, !tbaa !11
  %12 = load ptr, ptr %3, align 8, !tbaa !6
  call void @dt_control_job_set_params(ptr noundef %11, ptr noundef %12, ptr noundef null)
  %13 = load ptr, ptr %4, align 8, !tbaa !11
  store ptr %13, ptr %2, align 8
  store i32 1, ptr %5, align 4
  br label %14

14:                                               ; preds = %10, %9
  call void @llvm.lifetime.end.p0(i64 8, ptr %4) #3
  %15 = load ptr, ptr %2, align 8
  ret ptr %15
}

; Function Attrs: nounwind uwtable
define internal i32 @dt_dev_process_preview2_job_run(ptr noundef %0) #0 {
  %2 = alloca ptr, align 8
  %3 = alloca ptr, align 8
  store ptr %0, ptr %2, align 8, !tbaa !11
  call void @llvm.lifetime.start.p0(i64 8, ptr %3) #3
  %4 = load ptr, ptr %2, align 8, !tbaa !11
  %5 = call ptr @dt_control_job_get_params(ptr noundef %4)
  store ptr %5, ptr %3, align 8, !tbaa !6
  %6 = load ptr, ptr %3, align 8, !tbaa !6
  %7 = load ptr, ptr %3, align 8, !tbaa !6
  %8 = getelementptr inbounds nuw %struct.dt_develop_t, ptr %7, i32 0, i32 58
  %9 = load ptr, ptr %3, align 8, !tbaa !6
  %10 = getelementptr inbounds nuw %struct.dt_develop_t, ptr %9, i32 0, i32 58
  %11 = getelementptr inbounds nuw %struct.dt_dev_viewport_t, ptr %10, i32 0, i32 15
  %12 = load ptr, ptr %11, align 8, !tbaa !50
  call void @dt_dev_process_image_job(ptr noundef %6, ptr noundef %8, ptr noundef %12, i32 noundef 22, i32 noundef -2)
  call void @llvm.lifetime.end.p0(i64 8, ptr %3) #3
  ret i32 0
}

; Function Attrs: nounwind uwtable
define ptr @dt_dev_process_image_job_create(ptr noundef %0) #0 {
  %2 = alloca ptr, align 8
  %3 = alloca ptr, align 8
  %4 = alloca ptr, align 8
  %5 = alloca i32, align 4
  store ptr %0, ptr %3, align 8, !tbaa !6
  call void @llvm.lifetime.start.p0(i64 8, ptr %4) #3
  %6 = call ptr (ptr, ptr, ...) @dt_control_job_create(ptr noundef @dt_dev_process_image_job_run, ptr noundef @.str.2)
  store ptr %6, ptr %4, align 8, !tbaa !11
  %7 = load ptr, ptr %4, align 8, !tbaa !11
  %8 = icmp ne ptr %7, null
  br i1 %8, label %10, label %9

9:                                                ; preds = %1
  store ptr null, ptr %2, align 8
  store i32 1, ptr %5, align 4
  br label %14

10:                                               ; preds = %1
  %11 = load ptr, ptr %4, align 8, !tbaa !11
  %12 = load ptr, ptr %3, align 8, !tbaa !6
  call void @dt_control_job_set_params(ptr noundef %11, ptr noundef %12, ptr noundef null)
  %13 = load ptr, ptr %4, align 8, !tbaa !11
  store ptr %13, ptr %2, align 8
  store i32 1, ptr %5, align 4
  br label %14

14:                                               ; preds = %10, %9
  call void @llvm.lifetime.end.p0(i64 8, ptr %4) #3
  %15 = load ptr, ptr %2, align 8
  ret ptr %15
}

; Function Attrs: nounwind uwtable
define internal i32 @dt_dev_process_image_job_run(ptr noundef %0) #0 {
  %2 = alloca ptr, align 8
  %3 = alloca ptr, align 8
  store ptr %0, ptr %2, align 8, !tbaa !11
  call void @llvm.lifetime.start.p0(i64 8, ptr %3) #3
  %4 = load ptr, ptr %2, align 8, !tbaa !11
  %5 = call ptr @dt_control_job_get_params(ptr noundef %4)
  store ptr %5, ptr %3, align 8, !tbaa !6
  %6 = load ptr, ptr %3, align 8, !tbaa !6
  %7 = load ptr, ptr %3, align 8, !tbaa !6
  %8 = getelementptr inbounds nuw %struct.dt_develop_t, ptr %7, i32 0, i32 57
  %9 = load ptr, ptr %3, align 8, !tbaa !6
  %10 = getelementptr inbounds nuw %struct.dt_develop_t, ptr %9, i32 0, i32 57
  %11 = getelementptr inbounds nuw %struct.dt_dev_viewport_t, ptr %10, i32 0, i32 15
  %12 = load ptr, ptr %11, align 16, !tbaa !51
  call void @dt_dev_process_image_job(ptr noundef %6, ptr noundef %8, ptr noundef %12, i32 noundef 23, i32 noundef -2)
  call void @llvm.lifetime.end.p0(i64 8, ptr %3) #3
  ret i32 0
}

declare ptr @dt_control_job_get_params(ptr noundef) #2

declare void @dt_dev_process_image_job(ptr noundef, ptr noundef, ptr noundef, i32 noundef, i32 noundef) #2


!llvm.module.flags = !{!0, !1, !2, !3, !4, !5}

!0 = !{i32 7, !"Dwarf Version", i32 5}
!1 = !{i32 2, !"Debug Info Version", i32 3}
!2 = !{i32 1, !"wchar_size", i32 4}
!3 = !{i32 8, !"PIC Level", i32 2}
!4 = !{i32 7, !"uwtable", i32 2}
!5 = !{i32 7, !"debug-info-assignment-tracking", i1 true}
!6 = !{!7, !7, i64 0}
!7 = !{!"p1 _ZTS12dt_develop_t", !8, i64 0}
!8 = !{!"any pointer", !9, i64 0}
!9 = !{!"omnipotent char", !10, i64 0}
!10 = !{!"Simple C/C++ TBAA"}
!11 = !{!12, !12, i64 0}
!12 = !{!"p1 _ZTS9_dt_job_t", !8, i64 0}
!13 = !{!14, !18, i64 96}
!14 = !{!"dt_develop_t", !15, i64 0, !15, i64 4, !15, i64 8, !8, i64 16, !16, i64 24, !16, i64 32, !15, i64 40, !15, i64 44, !15, i64 48, !15, i64 52, !15, i64 56, !16, i64 64, !15, i64 72, !15, i64 76, !15, i64 80, !17, i64 88, !18, i64 96, !19, i64 112, !15, i64 1968, !15, i64 1972, !32, i64 1976, !15, i64 2016, !30, i64 2024, !15, i64 2032, !17, i64 2040, !15, i64 2048, !30, i64 2056, !30, i64 2064, !15, i64 2072, !30, i64 2080, !30, i64 2088, !33, i64 2096, !33, i64 2104, !15, i64 2112, !15, i64 2116, !30, i64 2120, !34, i64 2128, !35, i64 2136, !30, i64 2144, !15, i64 2152, !15, i64 2156, !15, i64 2160, !20, i64 2164, !20, i64 2168, !17, i64 2176, !15, i64 2184, !36, i64 2192, !41, i64 2344, !42, i64 2464, !43, i64 2488, !45, i64 2528, !46, i64 2560, !47, i64 2568, !48, i64 2584, !44, i64 2608, !44, i64 2616, !49, i64 2624, !49, i64 2712, !15, i64 2800, !15, i64 2804, !15, i64 2808, !30, i64 2816}
!15 = !{!"int", !9, i64 0}
!16 = !{!"double", !9, i64 0}
!17 = !{!"p1 _ZTS15dt_iop_module_t", !8, i64 0}
!18 = !{!"p1 _ZTS18dt_dev_pixelpipe_t", !8, i64 0}
!19 = !{!"dt_image_t", !15, i64 0, !15, i64 4, !20, i64 8, !20, i64 12, !20, i64 16, !20, i64 20, !20, i64 24, !20, i64 28, !20, i64 32, !9, i64 36, !9, i64 100, !9, i64 164, !9, i64 292, !9, i64 356, !9, i64 420, !9, i64 484, !21, i64 552, !15, i64 560, !9, i64 564, !9, i64 792, !9, i64 856, !9, i64 920, !9, i64 984, !15, i64 1112, !9, i64 1116, !15, i64 1372, !15, i64 1376, !15, i64 1380, !15, i64 1384, !15, i64 1388, !15, i64 1392, !15, i64 1396, !15, i64 1400, !15, i64 1404, !15, i64 1408, !20, i64 1412, !15, i64 1416, !15, i64 1420, !15, i64 1424, !15, i64 1428, !15, i64 1432, !15, i64 1436, !21, i64 1440, !21, i64 1448, !21, i64 1456, !21, i64 1464, !15, i64 1472, !22, i64 1488, !9, i64 1616, !26, i64 1656, !15, i64 1664, !15, i64 1668, !27, i64 1672, !28, i64 1680, !29, i64 1704, !24, i64 1716, !9, i64 1718, !15, i64 1728, !15, i64 1732, !20, i64 1736, !20, i64 1740, !9, i64 1744, !9, i64 1760, !9, i64 1808, !30, i64 1824, !31, i64 1832, !15, i64 1840, !15, i64 1844}
!20 = !{!"float", !9, i64 0}
!21 = !{!"long", !9, i64 0}
!22 = !{!"dt_iop_buffer_dsc_t", !15, i64 0, !15, i64 4, !15, i64 8, !9, i64 12, !23, i64 48, !25, i64 64, !9, i64 96, !15, i64 112}
!23 = !{!"", !24, i64 0, !24, i64 2}
!24 = !{!"short", !9, i64 0}
!25 = !{!"", !15, i64 0, !9, i64 16}
!26 = !{!"p1 omnipotent char", !8, i64 0}
!27 = !{!"dt_image_raw_parameters_t", !15, i64 0, !15, i64 3}
!28 = !{!"dt_image_geoloc_t", !16, i64 0, !16, i64 8, !16, i64 16}
!29 = !{!"_color_harmony_t", !15, i64 0, !15, i64 4, !15, i64 8}
!30 = !{!"p1 _ZTS6_GList", !8, i64 0}
!31 = !{!"p1 _ZTS16dt_cache_entry_t", !8, i64 0}
!32 = !{!"dt_pthread_mutex_t", !9, i64 0}
!33 = !{!"p1 int", !8, i64 0}
!34 = !{!"p1 _ZTS15dt_masks_form_t", !8, i64 0}
!35 = !{!"p1 _ZTS19dt_masks_form_gui_t", !8, i64 0}
!36 = !{!"", !37, i64 0, !17, i64 32, !38, i64 40, !40, i64 112}
!37 = !{!"dt_dev_proxy_exposure_t", !17, i64 0, !8, i64 8, !8, i64 16, !8, i64 24}
!38 = !{!"", !39, i64 0, !8, i64 8, !8, i64 16, !8, i64 24, !8, i64 32, !8, i64 40, !8, i64 48, !8, i64 56, !8, i64 64}
!39 = !{!"p1 _ZTS15dt_lib_module_t", !8, i64 0}
!40 = !{!"", !39, i64 0, !8, i64 8, !8, i64 16, !8, i64 24, !8, i64 32}
!41 = !{!"dt_dev_chroma_t", !17, i64 0, !17, i64 8, !9, i64 16, !9, i64 48, !9, i64 80, !15, i64 112}
!42 = !{!"", !17, i64 0, !17, i64 8, !8, i64 16}
!43 = !{!"", !44, i64 0, !44, i64 8, !15, i64 16, !15, i64 20, !20, i64 24, !20, i64 28, !15, i64 32}
!44 = !{!"p1 _ZTS10_GtkWidget", !8, i64 0}
!45 = !{!"", !44, i64 0, !44, i64 8, !15, i64 16, !15, i64 20, !15, i64 24, !20, i64 28}
!46 = !{!"", !44, i64 0}
!47 = !{!"", !44, i64 0, !15, i64 8}
!48 = !{!"", !44, i64 0, !44, i64 8, !44, i64 16}
!49 = !{!"dt_dev_viewport_t", !44, i64 0, !15, i64 8, !15, i64 12, !15, i64 16, !15, i64 20, !15, i64 24, !16, i64 32, !16, i64 40, !16, i64 48, !15, i64 56, !15, i64 60, !15, i64 64, !20, i64 68, !20, i64 72, !20, i64 76, !18, i64 80}
!50 = !{!14, !18, i64 2792}
!51 = !{!14, !18, i64 2704}
